; Function Attrs: mustprogress nofree norecurse nosync nounwind willreturn memory(argmem: read) uwtable
define noundef zeroext i1 @_Z18inputrecExclForcesPK10t_inputrec(ptr noundef readonly captures(none) %0) local_unnamed_addr #15 {
  %2 = getelementptr inbounds nuw i8, ptr %0, i64 364
  %.val = load i32, ptr %2, align 4, !tbaa !581
  %switch.tableidx = add i32 %.val, -3
  %3 = icmp ult i32 %switch.tableidx, 13
  br i1 %3, label %switch.hole_check, label %_ZL23usingFullElectrostaticsRK22CoulombInteractionType.exit

_ZL23usingFullElectrostaticsRK22CoulombInteractionType.exit: ; preds = %1
  %.old = and i32 %.val, -3
  %.old4 = icmp eq i32 %.old, 4
  br i1 %.old4, label %_ZL7usingRFRK22CoulombInteractionType.exit, label %4

4:                                                ; preds = %switch.hole_check, %_ZL23usingFullElectrostaticsRK22CoulombInteractionType.exit
  %5 = icmp ult i32 %.val, 17
  br i1 %5, label %switch.lookup3, label %_ZL7usingRFRK22CoulombInteractionType.exit

switch.hole_check:                                ; preds = %1
  %switch.maskindex = trunc nuw i32 %switch.tableidx to i16
  %switch.shifted = lshr i16 7173, %switch.maskindex
  %switch.lobit = trunc i16 %switch.shifted to i1
  %6 = and i32 %.val, 13
  %7 = icmp eq i32 %6, 4
  %or.cond = or i1 %7, %switch.lobit
  br i1 %or.cond, label %_ZL7usingRFRK22CoulombInteractionType.exit, label %4

switch.lookup3:                                   ; preds = %4
  %switch.cast = trunc nuw i32 %.val to i17
  %switch.downshift = lshr i17 -63482, %switch.cast
  %switch.masked = trunc i17 %switch.downshift to i1
  br label %_ZL7usingRFRK22CoulombInteractionType.exit

_ZL7usingRFRK22CoulombInteractionType.exit:       ; preds = %switch.hole_check, %4, %switch.lookup3, %_ZL23usingFullElectrostaticsRK22CoulombInteractionType.exit
  %8 = phi i1 [ true, %_ZL23usingFullElectrostaticsRK22CoulombInteractionType.exit ], [ %switch.masked, %switch.lookup3 ], [ false, %4 ], [ true, %switch.hole_check ]
  ret i1 %8
}